; Function Attrs: mustprogress uwtable
define void @_ZN3nix29ValuePrintingTests_tList_Test8TestBodyEv(ptr noundef nonnull align 8 dereferenceable(1272) %0) unnamed_addr #4 align 2 {
  %2 = alloca %"struct.nix::Value", align 8
  %3 = alloca %"struct.nix::Value", align 8
  %4 = alloca %"struct.nix::Value", align 8
  %5 = getelementptr inbounds i8, ptr %2, i64 8
  %6 = getelementptr inbounds i8, ptr %2, i64 16
  store i64 0, ptr %6, align 8
  store i32 1, ptr %2, align 8
  store i64 1, ptr %5, align 8
  %7 = getelementptr inbounds i8, ptr %3, i64 8
  %8 = getelementptr inbounds i8, ptr %3, i64 16
  store i64 0, ptr %8, align 8
  store i32 1, ptr %3, align 8
  store i64 2, ptr %7, align 8
  %9 = getelementptr inbounds i8, ptr %0, i64 24
  call void @_ZN3nix9EvalState6mkListERNS_5ValueEm(ptr noundef nonnull align 8 dereferenceable(1248) %9, ptr noundef nonnull align 8 dereferenceable(24) %4, i64 noundef 5)
  %10 = getelementptr inbounds i8, ptr %4, i64 8
  %11 = getelementptr inbounds i8, ptr %4, i64 16
  %12 = load ptr, ptr %11, align 8
  store ptr %2, ptr %12, align 8
  %13 = load ptr, ptr %11, align 8
  %14 = getelementptr inbounds i8, ptr %13, i64 8
  store ptr %3, ptr %14, align 8
  store i64 3, ptr %10, align 8
  call void @_ZN3nix18ValuePrintingTests4testIJEEEvNS_5ValueESt17basic_string_viewIcSt11char_traitsIcEEDpT_(ptr noundef nonnull align 8 dereferenceable(1272) %0, ptr noundef nonnull byval(%"struct.nix::Value") align 8 %4, i64 19, ptr nonnull @.str.30)
  ret void
}